******************************************************************************
                  MSP430 Linker PC v4.0.0                      
******************************************************************************
>> Linked Fri May 04 13:39:52 2012

OUTPUT FILE NAME:   <Project.out>
ENTRY POINT SYMBOL: "_c_int00"  address: 00009910


MEMORY CONFIGURATION

         name            origin    length      used     unused   attr    fill
----------------------  --------  ---------  --------  --------  ----  --------
  SFR                   00000000   00000010  00000000  00000010  RWIX
  PERIPHERALS_8BIT      00000010   000000f0  00000000  000000f0  RWIX
  PERIPHERALS_16BIT     00000100   00000100  00000000  00000100  RWIX
  RAM                   00000200   00000400  00000137  000002c9  RWIX
  INFOD                 00001000   00000040  00000000  00000040  RWIX
  INFOC                 00001040   00000040  00000000  00000040  RWIX
  INFOB                 00001080   00000040  00000000  00000040  RWIX
  INFOA                 000010c0   00000040  00000000  00000040  RWIX
  FLASH                 00008000   00007fde  00001f3b  000060a3  RWIX
  INT00                 0000ffe0   00000002  00000000  00000002  RWIX
  INT01                 0000ffe2   00000002  00000000  00000002  RWIX
  INT02                 0000ffe4   00000002  00000000  00000002  RWIX
  INT03                 0000ffe6   00000002  00000002  00000000  RWIX
  INT04                 0000ffe8   00000002  00000000  00000002  RWIX
  INT05                 0000ffea   00000002  00000000  00000002  RWIX
  INT06                 0000ffec   00000002  00000000  00000002  RWIX
  INT07                 0000ffee   00000002  00000000  00000002  RWIX
  INT08                 0000fff0   00000002  00000000  00000002  RWIX
  INT09                 0000fff2   00000002  00000000  00000002  RWIX
  INT10                 0000fff4   00000002  00000000  00000002  RWIX
  INT11                 0000fff6   00000002  00000000  00000002  RWIX
  INT12                 0000fff8   00000002  00000000  00000002  RWIX
  INT13                 0000fffa   00000002  00000000  00000002  RWIX
  INT14                 0000fffc   00000002  00000000  00000002  RWIX
  RESET                 0000fffe   00000002  00000002  00000000  RWIX


SECTION ALLOCATION MAP

 output                                  attributes/
section   page    origin      length       input sections
--------  ----  ----------  ----------   ----------------
.pinit     0    00008000    00000000     UNINITIALIZED

.bss       0    00000200    000000e7     UNINITIALIZED
                  00000200    00000068     nwk_QMgmt.obj (.bss)
                  00000268    00000026     mrfi.obj (.bss)
                  0000028e    00000026     nwk.obj (.bss)
                  000002b4    0000000a     nwk_link.obj (.bss)
                  000002be    00000009     nwk_globals.obj (.bss)
                  000002c7    00000001     bsp.obj (.bss)
                  000002c8    00000008     nwk_frame.obj (.bss)
                  000002d0    00000007     nwk_join.obj (.bss)
                  000002d7    00000001     nwk_api.obj (.bss)
                  000002d8    00000004     rts430.lib : _lock.obj (.bss)
                  000002dc    00000004                : boot.obj (.bss)
                  000002e0    00000003     main_LinkTo.obj (.bss)
                  000002e3    00000001     nwk_ping.obj (.bss)
                  000002e4    00000003     nwk_mgmt.obj (.bss)

.stack     0    000005b0    00000050     UNINITIALIZED
                  000005b0    00000002     rts430.lib : boot.obj (.stack)
                  000005b2    0000004e     --HOLE--

.text      0    00008000    00001e24     
                  00008000    000001c6     mrfi.obj (.text:MRFI_Init)
                  000081c6    00000198     nwk_link.obj (.text:smpl_send_link_reply)
                  0000835e    00000158     nwk_link.obj (.text:nwk_link)
                  000084b6    0000012a     nwk_QMgmt.obj (.text:nwk_QfindOldest)
                  000085e0    00000102     mrfi.obj (.text:MRFI_Transmit)
                  000086e2    000000fa     nwk_join.obj (.text:nwk_join)
                  000087dc    000000de     nwk.obj (.text:nwk_allocateLocalRxPort)
                  000088ba    000000d8     mrfi.obj (.text:Mrfi_SyncPinRxIsr)
                  00008992    000000b2     nwk_frame.obj (.text:nwk_retrieveFrame)
                  00008a44    000000b0     nwk_api.obj (.text:SMPL_Ioctl)
                  00008af4    000000ae     nwk_frame.obj (.text:dispatchFrame)
                  00008ba2    000000a0     main_LinkTo.obj (.text:linkTo)
                  00008c42    0000009e     nwk_frame.obj (.text:nwk_buildFrame)
                  00008ce0    00000086     nwk.obj (.text:nwk_nwkInit)
                  00008d66    00000082     nwk_QMgmt.obj (.text:nwk_QfindSlot)
                  00008de8    00000080     mrfi.obj (.text:spiBurstFifoAccess)
                  00008e68    0000007e     nwk_api.obj (.text:SMPL_SendOpt)
                  00008ee6    00000078     nwk_ioctl.obj (.text:nwk_radioControl)
                  00008f5e    00000070     main_LinkTo.obj (.text:sRxCallback)
                  00008fce    00000068     nwk.obj (.text:nwk_isConnectionValid)
                  00009036    00000058     rts430.lib : div32u.obj (.text)
                  0000908e    00000054     mrfi.obj (.text:MRFI_WakeUp)
                  000090e2    00000054     nwk_ioctl.obj (.text:nwk_rawSend)
                  00009136    00000050     nwk.obj (.text:nwk_getNextConnection)
                  00009186    0000004c     nwk_api.obj (.text:SMPL_Receive)
                  000091d2    0000004c     rts430.lib : lsr16.obj (.text)
                  0000921e    00000046     mrfi.obj (.text:MRFI_RxAddrIsFiltered)
                  00009264    00000046     rts430.lib : autoinit.obj (.text:_auto_init)
                  000092aa    00000046     mrfi.obj (.text:mrfiSpiCmdStrobe)
                  000092f0    00000046     nwk.obj (.text:nwk_isLinkDuplicate)
                  00009336    00000046     nwk_ping.obj (.text:smpl_send_ping_reply)
                  0000937c    00000044     mrfi.obj (.text:MRFI_Rssi)
                  000093c0    00000042     mrfi.obj (.text:spiRegAccess)
                  00009402    0000003e     nwk.obj (.text:initializeConnection)
                  00009440    0000003c     mrfi.obj (.text:MRFI_ReplyDelay)
                  0000947c    0000003c     nwk.obj (.text:nwk_putNumObjectIntoMsg)
                  000094b8    0000003a     nwk.obj (.text:nwk_isValidReply)
                  000094f2    0000003a     nwk_mgmt.obj (.text:nwk_processMgmt)
                  0000952c    00000034     mrfi.obj (.text:MRFI_SetRFPwr)
                  00009560    00000034     mrfi.obj (.text:MRFI_SetRxAddrFilter)
                  00009594    00000034     nwk_api.obj (.text:SMPL_Init)
                  000095c8    00000034     mrfi.obj (.text:mrfiSpiInit)
                  000095fc    00000034     nwk_ioctl.obj (.text:nwk_deviceAddress)
                  00009630    00000032     mrfi.obj (.text:MRFI_SetLogicalChannel)
                  00009662    00000032     nwk_QMgmt.obj (.text:nwk_QadjustOrder)
                  00009694    00000032     nwk.obj (.text:nwk_getConnInfo)
                  000096c6    00000032     nwk_link.obj (.text:nwk_linkInit)
                  000096f8    00000030     mrfi.obj (.text:Mrfi_DelayUsecSem)
                  00009728    00000030     main_LinkTo.obj (.text:main)
                  00009758    00000030     nwk.obj (.text:map_lid2idx)
                  00009788    00000030     nwk_ioctl.obj (.text:nwk_rawReceive)
                  000097b8    00000030     nwk_frame.obj (.text:nwk_sendFrame)
                  000097e8    0000002e     mrfi.obj (.text:Mrfi_CalculateRssi)
                  00009816    0000002c     mrfi.obj (.text:Mrfi_RxModeOff)
                  00009842    0000002c     rts430.lib : div16s.obj (.text)
                  0000986e    0000002a     mrfi.obj (.text:Mrfi_DelayUsec)
                  00009898    0000002a     nwk.obj (.text:nwk_checkConnInfo)
                  000098c2    00000028     nwk_ping.obj (.text:nwk_processPing)
                  000098ea    00000026     mrfi.obj (.text:Mrfi_RandomBackoffDelay)
                  00009910    00000026     rts430.lib : boot.obj (.text:_c_int00_noexit)
                  00009936    00000026     nwk_ioctl.obj (.text:nwk_connectionControl)
                  0000995c    00000026     nwk_globals.obj (.text:nwk_globalsInit)
                  00009982    00000026     nwk_join.obj (.text:nwk_joinInit)
                  000099a8    00000026     nwk_link.obj (.text:nwk_processLink)
                  000099ce    00000026     rts430.lib : mult32.obj (.text)
                  000099f4    00000024     mrfi.obj (.text:MRFI_Sleep)
                  00009a18    00000024     rts430.lib : memcmp.obj (.text:memcmp)
                  00009a3c    00000022     mrfi.obj (.text:MRFI_RxOn)
                  00009a5e    00000020     bsp.obj (.text:BSP_Init)
                  00009a7e    00000020     bsp.obj (.text:BSP_InitBoard)
                  00009a9e    00000020     mrfi.obj (.text:MRFI_EnableRxAddrFilter)
                  00009abe    00000020     nwk_frame.obj (.text:MRFI_RxCompleteISR)
                  00009ade    00000020     mrfi.obj (.text:MRFI_RxIdle)
                  00009afe    00000020     nwk_link.obj (.text:handleLinkRequest)
                  00009b1e    00000020     rts430.lib : memmov.obj (.text:memmove)
                  00009b3e    00000020     nwk_frame.obj (.text:nwk_frameInit)
                  00009b5e    00000020     nwk_join.obj (.text:nwk_processJoin)
                  00009b7e    0000001e     bsp.obj (.text:BSP_Delay)
                  00009b9c    0000001e     nwk_QMgmt.obj (.text:nwk_QInit)
                  00009bba    0000001c     mrfi.obj (.text:MRFI_GpioIsr)
                  00009bd6    0000001c     mrfi.obj (.text:mrfiSpiReadReg)
                  00009bf2    0000001c     nwk_globals.obj (.text:nwk_setMyAddress)
                  00009c0e    0000001a     mrfi.obj (.text:BSP_GpioPort1Isr)
                  00009c28    00000018     mrfi.obj (.text:MRFI_DelayMs)
                  00009c40    00000018     mrfi.obj (.text:mrfiSpiWriteReg)
                  00009c58    00000016     mrfi.obj (.text:MRFI_RandomByte)
                  00009c6e    00000016     mrfi.obj (.text:Mrfi_RxModeOn)
                  00009c84    00000016     rts430.lib : div16u.obj (.text)
                  00009c9a    00000014     nwk_api.obj (.text:ioctlPreInitAccessIsOK)
                  00009cae    00000014     rts430.lib : memset.obj (.text:memset)
                  00009cc2    00000014                : mult16.obj (.text)
                  00009cd6    00000014     main_LinkTo.obj (.text:toggleLED)
                  00009cea    00000012     bsp.obj (.text:BSP_InitLeds)
                  00009cfc    00000012     rts430.lib : memcpy.obj (.text:memcpy)
                  00009d0e    00000012     nwk_globals.obj (.text:nwk_getMyAddress)
                  00009d20    00000012     nwk_link.obj (.text:nwk_setLinkToken)
                  00009d32    00000010     rts430.lib : asr32.obj (.text:l_asr)
                  00009d42    00000010                : epilog.obj (.text)
                  00009d52    0000000e     mrfi.obj (.text:MRFI_Receive)
                  00009d60    0000000e     mrfi.obj (.text:mrfiSpiWriteTxFifo)
                  00009d6e    0000000e     nwk.obj (.text:nwk_getNumObjectFromMsg)
                  00009d7c    0000000e     nwk_globals.obj (.text:nwk_setAPAddress)
                  00009d8a    0000000c     mrfi.obj (.text:MRFI_PostKillSem)
                  00009d96    0000000c     nwk_ping.obj (.text:handlePingRequest)
                  00009da2    0000000c     mrfi.obj (.text:mrfiSpiReadRxFifo)
                  00009dae    0000000a     bsp.obj (.text:BSP_InitButtons)
                  00009db8    0000000a     bsp.obj (.text:BSP_InitDrivers)
                  00009dc2    0000000a     bsp.obj (.text:_system_pre_init)
                  00009dcc    0000000a     nwk_mgmt.obj (.text:nwk_mgmtInit)
                  00009dd6    0000000a     nwk_ping.obj (.text:nwk_pingInit)
                  00009de0    00000008     nwk_api.obj (.text:SMPL_Send)
                  00009de8    00000006     mrfi.obj (.text:MRFI_GetRadioState)
                  00009dee    00000006     nwk_api.obj (.text:SMPL_Link)
                  00009df4    00000006     nwk.obj (.text:nwk_freeConnection)
                  00009dfa    00000006     nwk_globals.obj (.text:nwk_getBCastAddress)
                  00009e00    00000006     nwk_globals.obj (.text:nwk_getFWVersion)
                  00009e06    00000006     nwk_frame.obj (.text:nwk_getMyRxType)
                  00009e0c    00000006     nwk_globals.obj (.text:nwk_getProtocolVersion)
                  00009e12    00000004     rts430.lib : exit.obj (.text:abort)
                  00009e16    00000004     nwk_freq.obj (.text:nwk_processFreq)
                  00009e1a    00000004     nwk_security.obj (.text:nwk_processSecurity)
                  00009e1e    00000002     rts430.lib : _lock.obj (.text:_nop)
                  00009e20    00000002     nwk_freq.obj (.text:nwk_freqInit)
                  00009e22    00000002     nwk_security.obj (.text:nwk_securityInit)

.cinit     0    00009e24    000000ba     
                  00009e24    0000002f     mrfi.obj (.cinit)
                  00009e53    00000001     --HOLE-- [fill = 0]
                  00009e54    0000001e     nwk_frame.obj (.cinit)
                  00009e72    00000019     nwk_link.obj (.cinit)
                  00009e8b    00000001     --HOLE-- [fill = 0]
                  00009e8c    00000013     nwk_join.obj (.cinit)
                  00009e9f    00000001     --HOLE-- [fill = 0]
                  00009ea0    00000011     main_LinkTo.obj (.cinit)
                  00009eb1    00000001     --HOLE-- [fill = 0]
                  00009eb2    0000000b     nwk_mgmt.obj (.cinit)
                  00009ebd    00000001     --HOLE-- [fill = 0]
                  00009ebe    00000005     bsp.obj (.cinit)
                  00009ec3    00000001     --HOLE-- [fill = 0]
                  00009ec4    00000005     nwk.obj (.cinit)
                  00009ec9    00000001     --HOLE-- [fill = 0]
                  00009eca    00000005     nwk_api.obj (.cinit)
                  00009ecf    00000001     --HOLE-- [fill = 0]
                  00009ed0    00000005     nwk_globals.obj (.cinit)
                  00009ed5    00000001     --HOLE-- [fill = 0]
                  00009ed6    00000005     nwk_ping.obj (.cinit)
                  00009edb    00000001     --HOLE-- [fill = 0]
                  00009edc    00000002     (.pad.cinit) [fill = 0]

.const     0    00009ede    0000005d     
                  00009ede    0000003c     mrfi.obj (.const:mrfiRadioCfg)
                  00009f1a    0000000c     nwk_frame.obj (.const:func)
                  00009f26    00000009     nwk_globals.obj (.const)
                  00009f2f    00000001     --HOLE-- [fill = 0]
                  00009f30    00000004     mrfi.obj (.const:mrfiBroadcastAddr)
                  00009f34    00000004     mrfi.obj (.const:mrfiLogicalChanTable)
                  00009f38    00000003     mrfi.obj (.const:mrfiRFPowerTable)

.int03     0    0000ffe6    00000002     
                  0000ffe6    00000002     mrfi.obj (.int03)

.reset     0    0000fffe    00000002     
                  0000fffe    00000002     rts430.lib : boot.obj (.reset)


GLOBAL SYMBOLS: SORTED ALPHABETICALLY BY Name 

address    name
--------   ----
00000200   .bss
00008000   .text
0000004a   ADC10AE0
0000004b   ADC10AE1
000001b0   ADC10CTL0
000001b2   ADC10CTL1
00000048   ADC10DTC0
00000049   ADC10DTC1
000001b4   ADC10MEM
000001bc   ADC10SA
00000057   BCSCTL1
00000058   BCSCTL2
00000053   BCSCTL3
00009b7e   BSP_Delay
00009c0e   BSP_GpioPort1Isr
00009a5e   BSP_Init
00009a7e   BSP_InitBoard
00009dae   BSP_InitButtons
00009db8   BSP_InitDrivers
00009cea   BSP_InitLeds
00009e12   C$$EXIT
000010fb   CALBC1_12MHZ
000010f9   CALBC1_16MHZ
000010ff   CALBC1_1MHZ
000010fd   CALBC1_8MHZ
000010fa   CALDCO_12MHZ
000010f8   CALDCO_16MHZ
000010fe   CALDCO_1MHZ
000010fc   CALDCO_8MHZ
00000056   DCOCTL
00000128   FCTL1
0000012a   FCTL2
0000012c   FCTL3
00000000   IE1
00000001   IE2
00000002   IFG1
00000003   IFG2
000091d2   I_LSR
00009218   I_LSR_1
000091f4   I_LSR_10
000091f0   I_LSR_11
000091ec   I_LSR_12
000091e8   I_LSR_13
000091e4   I_LSR_14
000091e0   I_LSR_15
00009214   I_LSR_2
00009210   I_LSR_3
0000920c   I_LSR_4
00009208   I_LSR_5
00009204   I_LSR_6
00009200   I_LSR_7
000091fc   I_LSR_8
000091f8   I_LSR_9
00009d32   L_ASR
00009c28   MRFI_DelayMs
00009a9e   MRFI_EnableRxAddrFilter
00009de8   MRFI_GetRadioState
00009bba   MRFI_GpioIsr
00008000   MRFI_Init
00009d8a   MRFI_PostKillSem
00009c58   MRFI_RandomByte
00009d52   MRFI_Receive
00009440   MRFI_ReplyDelay
0000937c   MRFI_Rssi
0000921e   MRFI_RxAddrIsFiltered
00009abe   MRFI_RxCompleteISR
00009ade   MRFI_RxIdle
00009a3c   MRFI_RxOn
00009630   MRFI_SetLogicalChannel
0000952c   MRFI_SetRFPwr
00009560   MRFI_SetRxAddrFilter
000099f4   MRFI_Sleep
000085e0   MRFI_Transmit
0000908e   MRFI_WakeUp
000000c0   OA0CTL0
000000c1   OA0CTL1
000000c2   OA1CTL0
000000c3   OA1CTL1
00000022   P1DIR
00000025   P1IE
00000024   P1IES
00000023   P1IFG
00000020   P1IN
00000021   P1OUT
00000027   P1REN
00000026   P1SEL
0000002a   P2DIR
0000002d   P2IE
0000002c   P2IES
0000002b   P2IFG
00000028   P2IN
00000029   P2OUT
0000002f   P2REN
0000002e   P2SEL
0000001a   P3DIR
00000018   P3IN
00000019   P3OUT
00000010   P3REN
0000001b   P3SEL
0000001e   P4DIR
0000001c   P4IN
0000001d   P4OUT
00000011   P4REN
0000001f   P4SEL
00009594   SMPL_Init
00008a44   SMPL_Ioctl
00009dee   SMPL_Link
00009186   SMPL_Receive
00009de0   SMPL_Send
00008e68   SMPL_SendOpt
00000172   TACCR0
00000174   TACCR1
00000176   TACCR2
00000162   TACCTL0
00000164   TACCTL1
00000166   TACCTL2
00000160   TACTL
0000012e   TAIV
00000170   TAR
00000192   TBCCR0
00000194   TBCCR1
00000196   TBCCR2
00000182   TBCCTL0
00000184   TBCCTL1
00000186   TBCCTL2
00000180   TBCTL
0000011e   TBIV
00000190   TBR
0000005d   UCA0ABCTL
00000062   UCA0BR0
00000063   UCA0BR1
00000060   UCA0CTL0
00000061   UCA0CTL1
0000005f   UCA0IRRCTL
0000005e   UCA0IRTCTL
00000064   UCA0MCTL
00000066   UCA0RXBUF
00000065   UCA0STAT
00000067   UCA0TXBUF
0000006a   UCB0BR0
0000006b   UCB0BR1
00000068   UCB0CTL0
00000069   UCB0CTL1
0000006c   UCB0I2CIE
00000118   UCB0I2COA
0000011a   UCB0I2CSA
0000006e   UCB0RXBUF
0000006d   UCB0STAT
0000006f   UCB0TXBUF
00000120   WDTCTL
00000600   __STACK_END
00000050   __STACK_SIZE
00000001   __TI_args_main
00000001   __TI_auto_init
00000001   __TI_exit
ffffffff   __binit__
00000200   __bss__
ffffffff   __c_args__
00009e24   __cinit__
00009842   __divi
00009c84   __divu
00009036   __divul
000002e7   __end__
00009e24   __etext__
00009cc2   __mpyi
000099ce   __mpyl
ffffffff   __pinit__
00009842   __remi
00009c84   __remu
00009036   __remul
00008000   __text__
00009264   _auto_init
00009910   _c_int00
00009910   _c_int00_noexit
000002dc   _cleanup_ptr
000002de   _dtors_ptr
000002d8   _lock
00009e1e   _nop
0000fffe   _reset_vector
000005b0   _stack
00009dc2   _system_pre_init
000002da   _unlock
00009e12   abort
ffffffff   binit
00009e24   cinit
000002e7   end
00009e24   etext
00009d4e   func_epilog_1
00009d4c   func_epilog_2
00009d4a   func_epilog_3
00009d48   func_epilog_4
00009d46   func_epilog_5
00009d44   func_epilog_6
00009d42   func_epilog_7
00009728   main
00009a18   memcmp
00009cfc   memcpy
00009b1e   memmove
00009cae   memset
00009f30   mrfiBroadcastAddr
000092aa   mrfiSpiCmdStrobe
000095c8   mrfiSpiInit
00009bd6   mrfiSpiReadReg
00009da2   mrfiSpiReadRxFifo
00009c40   mrfiSpiWriteReg
00009d60   mrfiSpiWriteTxFifo
00009b9c   nwk_QInit
00009662   nwk_QadjustOrder
000084b6   nwk_QfindOldest
00008d66   nwk_QfindSlot
000087dc   nwk_allocateLocalRxPort
00008c42   nwk_buildFrame
00009898   nwk_checkConnInfo
00009936   nwk_connectionControl
000095fc   nwk_deviceAddress
00009b3e   nwk_frameInit
00009df4   nwk_freeConnection
00009e20   nwk_freqInit
00009dfa   nwk_getBCastAddress
00009694   nwk_getConnInfo
00009e00   nwk_getFWVersion
00009d0e   nwk_getMyAddress
00009e06   nwk_getMyRxType
00009136   nwk_getNextConnection
00009d6e   nwk_getNumObjectFromMsg
00009e0c   nwk_getProtocolVersion
0000995c   nwk_globalsInit
00008fce   nwk_isConnectionValid
000092f0   nwk_isLinkDuplicate
000094b8   nwk_isValidReply
000086e2   nwk_join
00009982   nwk_joinInit
0000835e   nwk_link
000096c6   nwk_linkInit
00009dcc   nwk_mgmtInit
00008ce0   nwk_nwkInit
00009dd6   nwk_pingInit
00009e16   nwk_processFreq
00009b5e   nwk_processJoin
000099a8   nwk_processLink
000094f2   nwk_processMgmt
000098c2   nwk_processPing
00009e1a   nwk_processSecurity
0000947c   nwk_putNumObjectIntoMsg
00008ee6   nwk_radioControl
00009788   nwk_rawReceive
000090e2   nwk_rawSend
00008992   nwk_retrieveFrame
00009e22   nwk_securityInit
000097b8   nwk_sendFrame
00009d7c   nwk_setAPAddress
00009d20   nwk_setLinkToken
00009bf2   nwk_setMyAddress
ffffffff   pinit
00009cd6   toggleLED


GLOBAL SYMBOLS: SORTED BY Symbol Address 

address    name
--------   ----
00000000   IE1
00000001   IE2
00000001   __TI_args_main
00000001   __TI_auto_init
00000001   __TI_exit
00000002   IFG1
00000003   IFG2
00000010   P3REN
00000011   P4REN
00000018   P3IN
00000019   P3OUT
0000001a   P3DIR
0000001b   P3SEL
0000001c   P4IN
0000001d   P4OUT
0000001e   P4DIR
0000001f   P4SEL
00000020   P1IN
00000021   P1OUT
00000022   P1DIR
00000023   P1IFG
00000024   P1IES
00000025   P1IE
00000026   P1SEL
00000027   P1REN
00000028   P2IN
00000029   P2OUT
0000002a   P2DIR
0000002b   P2IFG
0000002c   P2IES
0000002d   P2IE
0000002e   P2SEL
0000002f   P2REN
00000048   ADC10DTC0
00000049   ADC10DTC1
0000004a   ADC10AE0
0000004b   ADC10AE1
00000050   __STACK_SIZE
00000053   BCSCTL3
00000056   DCOCTL
00000057   BCSCTL1
00000058   BCSCTL2
0000005d   UCA0ABCTL
0000005e   UCA0IRTCTL
0000005f   UCA0IRRCTL
00000060   UCA0CTL0
00000061   UCA0CTL1
00000062   UCA0BR0
00000063   UCA0BR1
00000064   UCA0MCTL
00000065   UCA0STAT
00000066   UCA0RXBUF
00000067   UCA0TXBUF
00000068   UCB0CTL0
00000069   UCB0CTL1
0000006a   UCB0BR0
0000006b   UCB0BR1
0000006c   UCB0I2CIE
0000006d   UCB0STAT
0000006e   UCB0RXBUF
0000006f   UCB0TXBUF
000000c0   OA0CTL0
000000c1   OA0CTL1
000000c2   OA1CTL0
000000c3   OA1CTL1
00000118   UCB0I2COA
0000011a   UCB0I2CSA
0000011e   TBIV
00000120   WDTCTL
00000128   FCTL1
0000012a   FCTL2
0000012c   FCTL3
0000012e   TAIV
00000160   TACTL
00000162   TACCTL0
00000164   TACCTL1
00000166   TACCTL2
00000170   TAR
00000172   TACCR0
00000174   TACCR1
00000176   TACCR2
00000180   TBCTL
00000182   TBCCTL0
00000184   TBCCTL1
00000186   TBCCTL2
00000190   TBR
00000192   TBCCR0
00000194   TBCCR1
00000196   TBCCR2
000001b0   ADC10CTL0
000001b2   ADC10CTL1
000001b4   ADC10MEM
000001bc   ADC10SA
00000200   .bss
00000200   __bss__
000002d8   _lock
000002da   _unlock
000002dc   _cleanup_ptr
000002de   _dtors_ptr
000002e7   __end__
000002e7   end
000005b0   _stack
00000600   __STACK_END
000010f8   CALDCO_16MHZ
000010f9   CALBC1_16MHZ
000010fa   CALDCO_12MHZ
000010fb   CALBC1_12MHZ
000010fc   CALDCO_8MHZ
000010fd   CALBC1_8MHZ
000010fe   CALDCO_1MHZ
000010ff   CALBC1_1MHZ
00008000   .text
00008000   MRFI_Init
00008000   __text__
0000835e   nwk_link
000084b6   nwk_QfindOldest
000085e0   MRFI_Transmit
000086e2   nwk_join
000087dc   nwk_allocateLocalRxPort
00008992   nwk_retrieveFrame
00008a44   SMPL_Ioctl
00008c42   nwk_buildFrame
00008ce0   nwk_nwkInit
00008d66   nwk_QfindSlot
00008e68   SMPL_SendOpt
00008ee6   nwk_radioControl
00008fce   nwk_isConnectionValid
00009036   __divul
00009036   __remul
0000908e   MRFI_WakeUp
000090e2   nwk_rawSend
00009136   nwk_getNextConnection
00009186   SMPL_Receive
000091d2   I_LSR
000091e0   I_LSR_15
000091e4   I_LSR_14
000091e8   I_LSR_13
000091ec   I_LSR_12
000091f0   I_LSR_11
000091f4   I_LSR_10
000091f8   I_LSR_9
000091fc   I_LSR_8
00009200   I_LSR_7
00009204   I_LSR_6
00009208   I_LSR_5
0000920c   I_LSR_4
00009210   I_LSR_3
00009214   I_LSR_2
00009218   I_LSR_1
0000921e   MRFI_RxAddrIsFiltered
00009264   _auto_init
000092aa   mrfiSpiCmdStrobe
000092f0   nwk_isLinkDuplicate
0000937c   MRFI_Rssi
00009440   MRFI_ReplyDelay
0000947c   nwk_putNumObjectIntoMsg
000094b8   nwk_isValidReply
000094f2   nwk_processMgmt
0000952c   MRFI_SetRFPwr
00009560   MRFI_SetRxAddrFilter
00009594   SMPL_Init
000095c8   mrfiSpiInit
000095fc   nwk_deviceAddress
00009630   MRFI_SetLogicalChannel
00009662   nwk_QadjustOrder
00009694   nwk_getConnInfo
000096c6   nwk_linkInit
00009728   main
00009788   nwk_rawReceive
000097b8   nwk_sendFrame
00009842   __divi
00009842   __remi
00009898   nwk_checkConnInfo
000098c2   nwk_processPing
00009910   _c_int00
00009910   _c_int00_noexit
00009936   nwk_connectionControl
0000995c   nwk_globalsInit
00009982   nwk_joinInit
000099a8   nwk_processLink
000099ce   __mpyl
000099f4   MRFI_Sleep
00009a18   memcmp
00009a3c   MRFI_RxOn
00009a5e   BSP_Init
00009a7e   BSP_InitBoard
00009a9e   MRFI_EnableRxAddrFilter
00009abe   MRFI_RxCompleteISR
00009ade   MRFI_RxIdle
00009b1e   memmove
00009b3e   nwk_frameInit
00009b5e   nwk_processJoin
00009b7e   BSP_Delay
00009b9c   nwk_QInit
00009bba   MRFI_GpioIsr
00009bd6   mrfiSpiReadReg
00009bf2   nwk_setMyAddress
00009c0e   BSP_GpioPort1Isr
00009c28   MRFI_DelayMs
00009c40   mrfiSpiWriteReg
00009c58   MRFI_RandomByte
00009c84   __divu
00009c84   __remu
00009cae   memset
00009cc2   __mpyi
00009cd6   toggleLED
00009cea   BSP_InitLeds
00009cfc   memcpy
00009d0e   nwk_getMyAddress
00009d20   nwk_setLinkToken
00009d32   L_ASR
00009d42   func_epilog_7
00009d44   func_epilog_6
00009d46   func_epilog_5
00009d48   func_epilog_4
00009d4a   func_epilog_3
00009d4c   func_epilog_2
00009d4e   func_epilog_1
00009d52   MRFI_Receive
00009d60   mrfiSpiWriteTxFifo
00009d6e   nwk_getNumObjectFromMsg
00009d7c   nwk_setAPAddress
00009d8a   MRFI_PostKillSem
00009da2   mrfiSpiReadRxFifo
00009dae   BSP_InitButtons
00009db8   BSP_InitDrivers
00009dc2   _system_pre_init
00009dcc   nwk_mgmtInit
00009dd6   nwk_pingInit
00009de0   SMPL_Send
00009de8   MRFI_GetRadioState
00009dee   SMPL_Link
00009df4   nwk_freeConnection
00009dfa   nwk_getBCastAddress
00009e00   nwk_getFWVersion
00009e06   nwk_getMyRxType
00009e0c   nwk_getProtocolVersion
00009e12   C$$EXIT
00009e12   abort
00009e16   nwk_processFreq
00009e1a   nwk_processSecurity
00009e1e   _nop
00009e20   nwk_freqInit
00009e22   nwk_securityInit
00009e24   __cinit__
00009e24   __etext__
00009e24   cinit
00009e24   etext
00009f30   mrfiBroadcastAddr
0000fffe   _reset_vector
ffffffff   __binit__
ffffffff   __c_args__
ffffffff   __pinit__
ffffffff   binit
ffffffff   pinit

[255 symbols]
